target datalayout = "e-m:e-p270:32:32-p271:32:32-p272:64:64-i64:64-i128:128-f80:128-n8:16:32:64-S128"
target triple = "x86_64-pc-linux-gnu"

@.str.2 = private unnamed_addr constant [36 x i8] c"../qemu/tests/qtest/libqos/libqos.c\00", align 1
@.str.18 = private unnamed_addr constant [6 x i8] c"qcow2\00", align 1
@__func__.mkqcow2 = private unnamed_addr constant [8 x i8] c"mkqcow2\00", align 1
@.str.19 = private unnamed_addr constant [47 x i8] c"'mkimg(file, \22qcow2\22, size_mb)' should be TRUE\00", align 1

; Function Attrs: nounwind sspstrong uwtable
define dso_local void @mkqcow2(ptr noundef %0, i32 noundef %1) #0 {
  %3 = alloca ptr, align 8
  %4 = alloca i32, align 4
  %5 = alloca i32, align 4
  %6 = alloca i32, align 4
  store ptr %0, ptr %3, align 8
  store i32 %1, ptr %4, align 4
  br label %7

7:                                                ; preds = %2
  call void @llvm.lifetime.start.p0(i64 4, ptr %5) #14
  store i32 0, ptr %5, align 4, !annotation !4
  %8 = load ptr, ptr %3, align 8
  %9 = load i32, ptr %4, align 4
  %10 = call zeroext i1 @mkimg(ptr noundef %8, ptr noundef @.str.18, i32 noundef %9)
  br i1 %10, label %11, label %12

11:                                               ; preds = %7
  store i32 1, ptr %5, align 4
  br label %13

12:                                               ; preds = %7
  store i32 0, ptr %5, align 4
  br label %13

13:                                               ; preds = %12, %11
  %14 = load i32, ptr %5, align 4
  store i32 %14, ptr %6, align 4
  call void @llvm.lifetime.end.p0(i64 4, ptr %5) #14
  %15 = load i32, ptr %6, align 4
  %16 = sext i32 %15 to i64
  %17 = call i64 @llvm.expect.i64(i64 %16, i64 1)
  %18 = icmp ne i64 %17, 0
  br i1 %18, label %19, label %20

19:                                               ; preds = %13
  br label %21

20:                                               ; preds = %13
  call void @g_assertion_message(ptr noundef null, ptr noundef @.str.2, i32 noundef 143, ptr noundef @__func__.mkqcow2, ptr noundef @.str.19)
  br label %21

21:                                               ; preds = %20, %19
  br label %22

22:                                               ; preds = %21
  ret void
}