; Function Attrs: nounwind sspstrong uwtable
define dso_local void @mkqcow2(ptr noundef %0, i32 noundef %1) local_unnamed_addr #0 {
  %3 = tail call zeroext i1 @mkimg(ptr noundef %0, ptr noundef nonnull @.str.18, i32 noundef %1) #13
  br i1 %3, label %5, label %4, !prof !8

4:                                                ; preds = %2
  tail call void @g_assertion_message(ptr noundef null, ptr noundef nonnull @.str.2, i32 noundef 143, ptr noundef nonnull @__func__.mkqcow2, ptr noundef nonnull @.str.19) #13
  br label %5

5:                                                ; preds = %4, %2
  ret void
}